target datalayout = "e-m:e-p270:32:32-p271:32:32-p272:64:64-i64:64-i128:128-f80:128-n8:16:32:64-S128"
target triple = "x86_64-pc-linux-gnu"

; Function Attrs: nounwind uwtable
define internal void @sbr_sum64x5_c(ptr noundef %0) #1 {
  %2 = alloca ptr, align 8
  %3 = alloca i32, align 4
  %4 = alloca float, align 4
  store ptr %0, ptr %2, align 8, !tbaa !21
  call void @llvm.lifetime.start.p0(i64 4, ptr %3) #5
  store i32 0, ptr %3, align 4, !tbaa !23
  br label %5

5:                                                ; preds = %47, %1
  %6 = load i32, ptr %3, align 4, !tbaa !23
  %7 = icmp slt i32 %6, 64
  br i1 %7, label %8, label %50

8:                                                ; preds = %5
  call void @llvm.lifetime.start.p0(i64 4, ptr %4) #5
  %9 = load ptr, ptr %2, align 8, !tbaa !21
  %10 = load i32, ptr %3, align 4, !tbaa !23
  %11 = sext i32 %10 to i64
  %12 = getelementptr inbounds float, ptr %9, i64 %11
  %13 = load float, ptr %12, align 4, !tbaa !25
  %14 = load ptr, ptr %2, align 8, !tbaa !21
  %15 = load i32, ptr %3, align 4, !tbaa !23
  %16 = add nsw i32 %15, 64
  %17 = sext i32 %16 to i64
  %18 = getelementptr inbounds float, ptr %14, i64 %17
  %19 = load float, ptr %18, align 4, !tbaa !25
  %20 = fadd nsz float %13, %19
  %21 = load ptr, ptr %2, align 8, !tbaa !21
  %22 = load i32, ptr %3, align 4, !tbaa !23
  %23 = add nsw i32 %22, 128
  %24 = sext i32 %23 to i64
  %25 = getelementptr inbounds float, ptr %21, i64 %24
  %26 = load float, ptr %25, align 4, !tbaa !25
  %27 = fadd nsz float %20, %26
  %28 = load ptr, ptr %2, align 8, !tbaa !21
  %29 = load i32, ptr %3, align 4, !tbaa !23
  %30 = add nsw i32 %29, 192
  %31 = sext i32 %30 to i64
  %32 = getelementptr inbounds float, ptr %28, i64 %31
  %33 = load float, ptr %32, align 4, !tbaa !25
  %34 = fadd nsz float %27, %33
  %35 = load ptr, ptr %2, align 8, !tbaa !21
  %36 = load i32, ptr %3, align 4, !tbaa !23
  %37 = add nsw i32 %36, 256
  %38 = sext i32 %37 to i64
  %39 = getelementptr inbounds float, ptr %35, i64 %38
  %40 = load float, ptr %39, align 4, !tbaa !25
  %41 = fadd nsz float %34, %40
  store float %41, ptr %4, align 4, !tbaa !25
  %42 = load float, ptr %4, align 4, !tbaa !25
  %43 = load ptr, ptr %2, align 8, !tbaa !21
  %44 = load i32, ptr %3, align 4, !tbaa !23
  %45 = sext i32 %44 to i64
  %46 = getelementptr inbounds float, ptr %43, i64 %45
  store float %42, ptr %46, align 4, !tbaa !25
  call void @llvm.lifetime.end.p0(i64 4, ptr %4) #5
  br label %47

47:                                               ; preds = %8
  %48 = load i32, ptr %3, align 4, !tbaa !23
  %49 = add nsw i32 %48, 1
  store i32 %49, ptr %3, align 4, !tbaa !23
  br label %5, !llvm.loop !27

50:                                               ; preds = %5
  call void @llvm.lifetime.end.p0(i64 4, ptr %3) #5
  ret void
}