; Function Attrs: nofree norecurse nosync nounwind memory(argmem: readwrite) uwtable
define internal void @sbr_sum64x5_c(ptr noundef captures(none) %0) #1 {
  br label %2

2:                                                ; preds = %1, %2
  %indvars.iv = phi i64 [ 0, %1 ], [ %indvars.iv.next, %2 ]
  %3 = getelementptr inbounds nuw float, ptr %0, i64 %indvars.iv
  %4 = load float, ptr %3, align 4, !tbaa !19
  %5 = getelementptr inbounds nuw i8, ptr %3, i64 256
  %6 = load float, ptr %5, align 4, !tbaa !19
  %7 = fadd nsz float %4, %6
  %8 = getelementptr inbounds nuw i8, ptr %3, i64 512
  %9 = load float, ptr %8, align 4, !tbaa !19
  %10 = fadd nsz float %7, %9
  %11 = getelementptr inbounds nuw i8, ptr %3, i64 768
  %12 = load float, ptr %11, align 4, !tbaa !19
  %13 = fadd nsz float %10, %12
  %14 = getelementptr inbounds nuw i8, ptr %3, i64 1024
  %15 = load float, ptr %14, align 4, !tbaa !19
  %16 = fadd nsz float %13, %15
  store float %16, ptr %3, align 4, !tbaa !19
  %indvars.iv.next = add nuw nsw i64 %indvars.iv, 1
  %exitcond.not = icmp eq i64 %indvars.iv.next, 64
  br i1 %exitcond.not, label %17, label %2, !llvm.loop !21

17:                                               ; preds = %2
  ret void
}